; ModuleID = 'probe2.a84200c58f91f5f8-cgu.0'
source_filename = "probe2.a84200c58f91f5f8-cgu.0"
target datalayout = "e-m:e-p270:32:32-p271:32:32-p272:64:64-i64:64-i128:128-f80:128-n8:16:32:64-S128"
target triple = "x86_64-unknown-linux-gnu"

; core::f64::<impl f64>::to_int_unchecked
; Function Attrs: inlinehint nonlazybind uwtable
define i32 @"_ZN4core3f6421_$LT$impl$u20$f64$GT$16to_int_unchecked17h07c1df341747c270E"(double %self) unnamed_addr #0 {
start:
; call <f64 as core::convert::num::FloatToInt<i32>>::to_int_unchecked
  %_0 = call i32 @"_ZN65_$LT$f64$u20$as$u20$core..convert..num..FloatToInt$LT$i32$GT$$GT$16to_int_unchecked17h96632068e0887f2fE"(double %self)
  ret i32 %_0
}

; <f64 as core::convert::num::FloatToInt<i32>>::to_int_unchecked
; Function Attrs: inlinehint nonlazybind uwtable
define internal i32 @"_ZN65_$LT$f64$u20$as$u20$core..convert..num..FloatToInt$LT$i32$GT$$GT$16to_int_unchecked17h96632068e0887f2fE"(double %self) unnamed_addr #0 {
start:
  %0 = alloca [4 x i8], align 4
  %1 = fptosi double %self to i32
  store i32 %1, ptr %0, align 4
  %_0 = load i32, ptr %0, align 4
  ret i32 %_0
}

; probe2::probe
; Function Attrs: nonlazybind uwtable
define void @_ZN6probe25probe17hddcff4fdde100a5cE() unnamed_addr #1 {
start:
; call core::f64::<impl f64>::to_int_unchecked
  %_1 = call i32 @"_ZN4core3f6421_$LT$impl$u20$f64$GT$16to_int_unchecked17h07c1df341747c270E"(double 1.000000e+00)
  ret void
}

attributes #0 = { inlinehint nonlazybind uwtable "probe-stack"="inline-asm" "target-cpu"="icelake-server" "target-features"="+prfchw,-cldemote,+avx,+aes,+sahf,+pclmul,-xop,+crc32,+xsaves,-avx512fp16,-usermsr,-sm4,-egpr,+sse4.1,+avx512ifma,+xsave,+sse4.2,-tsxldtrk,-sm3,-ptwrite,-widekl,+invpcid,+64bit,+xsavec,-avx10.1-512,+avx512vpopcntdq,+cmov,-avx512vp2intersect,+avx512cd,+movbe,-avxvnniint8,-ccmp,-amx-int8,-kl,-avx10.1-256,+evex512,-avxvnni,-rtm,+adx,+avx2,-hreset,-movdiri,-serialize,-sha512,+vpclmulqdq,+avx512vl,-uintr,-cf,+clflushopt,-raoint,-cmpccxadd,+bmi,-amx-tile,+sse,+gfni,-avxvnniint16,-amx-fp16,-ndd,+xsaveopt,+rdrnd,+avx512f,-amx-bf16,-avx512bf16,+avx512vnni,-push2pop2,+cx8,+avx512bw,+sse3,+pku,+fsgsbase,-clzero,-mwaitx,-lwp,+lzcnt,+sha,-movdir64b,-ppx,+wbnoinvd,-enqcmd,-avxneconvert,-tbm,+pconfig,-amx-complex,+ssse3,+cx16,+bmi2,+fma,+popcnt,-avxifma,+f16c,+avx512bitalg,-rdpru,+clwb,+mmx,+sse2,+rdseed,+avx512vbmi2,-prefetchi,+rdpid,-fma4,+avx512vbmi,-shstk,+vaes,-waitpkg,+sgx,+fxsr,+avx512dq,-sse4a" }
attributes #1 = { nonlazybind uwtable "probe-stack"="inline-asm" "target-cpu"="icelake-server" "target-features"="+prfchw,-cldemote,+avx,+aes,+sahf,+pclmul,-xop,+crc32,+xsaves,-avx512fp16,-usermsr,-sm4,-egpr,+sse4.1,+avx512ifma,+xsave,+sse4.2,-tsxldtrk,-sm3,-ptwrite,-widekl,+invpcid,+64bit,+xsavec,-avx10.1-512,+avx512vpopcntdq,+cmov,-avx512vp2intersect,+avx512cd,+movbe,-avxvnniint8,-ccmp,-amx-int8,-kl,-avx10.1-256,+evex512,-avxvnni,-rtm,+adx,+avx2,-hreset,-movdiri,-serialize,-sha512,+vpclmulqdq,+avx512vl,-uintr,-cf,+clflushopt,-raoint,-cmpccxadd,+bmi,-amx-tile,+sse,+gfni,-avxvnniint16,-amx-fp16,-ndd,+xsaveopt,+rdrnd,+avx512f,-amx-bf16,-avx512bf16,+avx512vnni,-push2pop2,+cx8,+avx512bw,+sse3,+pku,+fsgsbase,-clzero,-mwaitx,-lwp,+lzcnt,+sha,-movdir64b,-ppx,+wbnoinvd,-enqcmd,-avxneconvert,-tbm,+pconfig,-amx-complex,+ssse3,+cx16,+bmi2,+fma,+popcnt,-avxifma,+f16c,+avx512bitalg,-rdpru,+clwb,+mmx,+sse2,+rdseed,+avx512vbmi2,-prefetchi,+rdpid,-fma4,+avx512vbmi,-shstk,+vaes,-waitpkg,+sgx,+fxsr,+avx512dq,-sse4a" }

!llvm.module.flags = !{!0, !1}
!llvm.ident = !{!2}

!0 = !{i32 8, !"PIC Level", i32 2}
!1 = !{i32 2, !"RtLibUseGOT", i32 1}
!2 = !{!"rustc version 1.86.0 (05f9846f8 2025-03-31)"}
